; Function Attrs: mustprogress nofree norecurse nosync nounwind willreturn memory(read, inaccessiblemem: none) uwtable
define noundef i32 @_ZNK3g2o7csparse7CSparse10choleskyNzEv(ptr noundef nonnull readonly align 8 captures(none) dereferenceable(8) %0) local_unnamed_addr #3 align 2 {
  %2 = load ptr, ptr %0, align 8, !tbaa !14
  %3 = load ptr, ptr %2, align 8, !tbaa !52
  %.not = icmp eq ptr %3, null
  br i1 %.not, label %8, label %4

4:                                                ; preds = %1
  %5 = getelementptr inbounds nuw i8, ptr %3, i64 48
  %6 = load double, ptr %5, align 8, !tbaa !61
  %7 = fptosi double %6 to i32
  br label %8

8:                                                ; preds = %1, %4
  %.0 = phi i32 [ %7, %4 ], [ -1, %1 ]
  ret i32 %.0
}